(lp0
S'Afghanistan'
p1
aS'Albania'
p2
aS'Algeria'
p3
aS'Andorra'
p4
aS'Angola'
p5
aS'Antigua & Deps'
p6
aS'Argentina'
p7
aS'Armenia'
p8
aS'Australia'
p9
aS'Austria'
p10
aS'Azerbaijan'
p11
aS'Bahamas'
p12
aS'Bahrain'
p13
aS'Bangladesh'
p14
aS'Barbados'
p15
aS'Belarus'
p16
aS'Belgium'
p17
aS'Belize'
p18
aS'Benin'
p19
aS'Bhutan'
p20
aS'Bolivia'
p21
aS'Bosnia Herzegovina'
p22
aS'Botswana'
p23
aS'Brazil'
p24
aS'Brunei'
p25
aS'Bulgaria'
p26
aS'Burkina'
p27
aS'Burundi'
p28
aS'Cambodia'
p29
aS'Cameroon'
p30
aS'Canada'
p31
aS'Cape Verde'
p32
aS'Central African Rep'
p33
aS'Chad'
p34
aS'Chile'
p35
aS'China'
p36
aS'Colombia'
p37
aS'Comoros'
p38
aS'Congo'
p39
aS'Costa Rica'
p40
aS'Croatia'
p41
aS'Cuba'
p42
aS'Cyprus'
p43
aS'Czech Republic'
p44
aS'Denmark'
p45
aS'Djibouti'
p46
aS'Dominica'
p47
aS'Dominican Republic'
p48
aS'East Timor'
p49
aS'Ecuador'
p50
aS'Egypt'
p51
aS'El Salvador'
p52
aS'Equatorial Guinea'
p53
aS'Eritrea'
p54
aS'Estonia'
p55
aS'Ethiopia'
p56
aS'Fiji'
p57
aS'Finland'
p58
aS'France'
p59
aS'Gabon'
p60
aS'Gambia'
p61
aS'Georgia'
p62
aS'Germany'
p63
aS'Ghana'
p64
aS'Greece'
p65
aS'Grenada'
p66
aS'Guatemala'
p67
aS'Guinea'
p68
aS'Guinea-Bissau'
p69
aS'Guyana'
p70
aS'Haiti'
p71
aS'Honduras'
p72
aS'Hungary'
p73
aS'Iceland'
p74
aS'India'
p75
aS'Indonesia'
p76
aS'Iran'
p77
aS'Iraq'
p78
aS'Ireland'
p79
aS'Israel'
p80
aS'Italy'
p81
aS'Ivory Coast'
p82
aS'Jamaica'
p83
aS'Japan'
p84
aS'Jordan'
p85
aS'Kazakhstan'
p86
aS'Kenya'
p87
aS'Kiribati'
p88
aS'Korea North'
p89
aS'Korea South'
p90
aS'Kosovo'
p91
aS'Kuwait'
p92
aS'Kyrgyzstan'
p93
aS'Laos'
p94
aS'Latvia'
p95
aS'Lebanon'
p96
aS'Lesotho'
p97
aS'Liberia'
p98
aS'Libya'
p99
aS'Liechtenstein'
p100
aS'Lithuania'
p101
aS'Luxembourg'
p102
aS'Macedonia'
p103
aS'Madagascar'
p104
aS'Malawi'
p105
aS'Malaysia'
p106
aS'Maldives'
p107
aS'Mali'
p108
aS'Malta'
p109
aS'Marshall Islands'
p110
aS'Mauritania'
p111
aS'Mauritius'
p112
aS'Mexico'
p113
aS'Micronesia'
p114
aS'Moldova'
p115
aS'Monaco'
p116
aS'Mongolia'
p117
aS'Montenegro'
p118
aS'Morocco'
p119
aS'Mozambique'
p120
aS'Myanmar'
p121
aS'Namibia'
p122
aS'Nauru'
p123
aS'Nepal'
p124
aS'Netherlands'
p125
aS'New Zealand'
p126
aS'NicaraguaNiger'
p127
aS'Nigeria'
p128
aS'Norway'
p129
aS'Oman'
p130
aS'Pakistan'
p131
aS'Palau'
p132
aS'Panama'
p133
aS'Papua New Guinea'
p134
aS'Paraguay'
p135
aS'Peru'
p136
aS'Philippines'
p137
aS'Poland'
p138
aS'Portugal'
p139
aS'Qatar'
p140
aS'Romania'
p141
aS'Russian Federation'
p142
aS'Rwanda'
p143
aS'St Kitts & Nevis'
p144
aS'St Lucia'
p145
aS'Saint Vincent & the Grenadines'
p146
aS'Samoa'
p147
aS'San Marino'
p148
aS'Sao Tome & Principe'
p149
aS'Saudi Arabia'
p150
aS'Senegal'
p151
aS'Serbia'
p152
aS'Seychelles'
p153
aS'Sierra Leone'
p154
aS'Singapore'
p155
aS'Slovakia'
p156
aS'Slovenia'
p157
aS'Solomon Islands'
p158
aS'Somalia'
p159
aS'South Africa'
p160
aS'South Sudan'
p161
aS'Spain'
p162
aS'Sri Lanka'
p163
aS'Sudan'
p164
aS'Suriname'
p165
aS'Swaziland'
p166
aS'Sweden'
p167
aS'Switzerland'
p168
aS'Syria'
p169
aS'Taiwan'
p170
aS'Tajikistan'
p171
aS'Tanzania'
p172
aS'Thailand'
p173
aS'Togo'
p174
aS'Tonga'
p175
aS'Trinidad & Tobago'
p176
aS'Tunisia'
p177
aS'Turkey'
p178
aS'Turkmenistan'
p179
aS'Tuvalu'
p180
aS'Uganda'
p181
aS'Ukraine'
p182
aS'United Arab Emirates'
p183
aS'United Kingdom'
p184
aS'United States'
p185
aS'Uruguay'
p186
aS'Uzbekistan'
p187
aS'Vanuatu'
p188
aS'Vatican City'
p189
aS'Venezuela'
p190
aS'Vietnam'
p191
aS'Yemen'
p192
aS'Zambia'
p193
aS'Zimbabwe'
p194
a.