(lp0
S'accounting'
p1
aS'airport'
p2
aS'amusement_park'
p3
aS'aquarium'
p4
aS'art_gallery'
p5
aS'atm'
p6
aS'bakery'
p7
aS'bank'
p8
aS'bar'
p9
aS'beauty_salon'
p10
aS'bicycle_store'
p11
aS'book_store'
p12
aS'bowling_alley'
p13
aS'bus_station'
p14
aS'cafe'
p15
aS'campground'
p16
aS'car_dealer'
p17
aS'car_rental'
p18
aS'car_repair'
p19
aS'car_wash'
p20
aS'casino'
p21
aS'cemetery'
p22
aS'church'
p23
aS'city_hall'
p24
aS'clothing_store'
p25
aS'convenience_store'
p26
aS'courthouse'
p27
aS'dentist'
p28
aS'department_store'
p29
aS'doctor'
p30
aS'electrician'
p31
aS'electronics_store'
p32
aS'embassy'
p33
aS'fire_station'
p34
aS'florist'
p35
aS'funeral_home'
p36
aS'furniture_store'
p37
aS'gas_station'
p38
aS'gym'
p39
aS'hair_care'
p40
aS'hardware_store'
p41
aS'hindu_temple'
p42
aS'home_goods_store'
p43
aS'hospital'
p44
aS'insurance_agency'
p45
aS'jewelry_store'
p46
aS'laundry'
p47
aS'lawyer'
p48
aS'library'
p49
aS'liquor_store'
p50
aS'local_government_office'
p51
aS'locksmith'
p52
aS'lodging'
p53
aS'meal_delivery'
p54
aS'meal_takeaway'
p55
aS'mosque'
p56
aS'movie_rental'
p57
aS'movie_theater'
p58
aS'moving_company'
p59
aS'museum'
p60
aS'night_club'
p61
aS'painter'
p62
aS'park'
p63
aS'parking'
p64
aS'pet_store'
p65
aS'pharmacy'
p66
aS'physiotherapist'
p67
aS'plumber'
p68
aS'police'
p69
aS'post_office'
p70
aS'real_estate_agency'
p71
aS'restaurant'
p72
aS'roofing_contractor'
p73
aS'rv_park'
p74
aS'school'
p75
aS'shoe_store'
p76
aS'shopping_mall'
p77
aS'spa'
p78
aS'stadium'
p79
aS'storage'
p80
aS'store'
p81
aS'subway_station'
p82
aS'supermarket'
p83
aS'synagogue'
p84
aS'taxi_stand'
p85
aS'train_station'
p86
aS'transit_station'
p87
aS'travel_agency'
p88
aS'veterinary_care'
p89
aS'zoo'
p90
a.