(lp0
S'Alabama'
p1
aS'Alaska'
p2
aS'Arizona'
p3
aS'Arkansas'
p4
aS'California'
p5
aS'Colorado'
p6
aS'Connecticut'
p7
aS'Delaware'
p8
aS'District of Columbia'
p9
aS'Florida'
p10
aS'Georgia'
p11
aS'Hawaii'
p12
aS'Idaho'
p13
aS'Illinois'
p14
aS'Indiana'
p15
aS'Iowa'
p16
aS'Kansas'
p17
aS'Kentucky'
p18
aS'Louisiana'
p19
aS'Maine'
p20
aS'Maryland'
p21
aS'Massachusetts'
p22
aS'Michigan'
p23
aS'Minnesota'
p24
aS'Mississippi'
p25
aS'Missouri'
p26
aS'Montana'
p27
aS'Nebraska'
p28
aS'Nevada'
p29
aS'New Hampshire'
p30
aS'New Jersey'
p31
aS'New Mexico'
p32
aS'New York'
p33
aS'North Carolina'
p34
aS'North Dakota'
p35
aS'Ohio'
p36
aS'Oklahoma'
p37
aS'Oregon'
p38
aS'Pennsylvania'
p39
aS'Rhode Island'
p40
aS'South Carolina'
p41
aS'South Dakota'
p42
aS'Tennessee'
p43
aS'Texas'
p44
aS'Utah'
p45
aS'Vermont'
p46
aS'Virginia'
p47
aS'Washington'
p48
aS'West Virginia'
p49
aS'Wisconsin'
p50
aS'Wyoming'
p51
a.